target datalayout = "e-m:e-p270:32:32-p271:32:32-p272:64:64-i64:64-i128:128-f80:128-n8:16:32:64-S128"
target triple = "x86_64-pc-linux-gnu"

%struct.PJconsts = type <{ ptr, ptr, ptr, ptr, ptr, ptr, ptr, ptr, ptr, ptr, ptr, ptr, i32, [4 x i8], ptr, ptr, ptr, ptr, ptr, ptr, ptr, ptr, double, double, double, double, double, double, double, double, double, double, double, double, double, double, double, double, double, double, double, double, double, double, i32, i32, i32, i32, i32, i32, i32, i32, i32, i32, i32, [4 x i8], ptr, ptr, ptr, ptr, ptr, ptr, double, double, double, double, double, double, double, double, double, double, double, i32, [4 x i8], [7 x double], i32, [4 x i8], ptr, ptr, double, double, i32, [4 x i8], %"class.std::shared_ptr", i8, [7 x i8], double, i8, [7 x i8], %"class.std::__cxx11::basic_string", %"class.std::__cxx11::basic_string", %"class.std::__cxx11::basic_string", i8, [7 x i8], %"class.std::vector", i32, [4 x i8], %"class.std::vector.3", i32, i8, i8, i8, i8 }>
%"class.std::shared_ptr" = type { %"class.std::__shared_ptr" }
%"class.std::__shared_ptr" = type { ptr, %"class.std::__shared_count" }
%"class.std::__shared_count" = type { ptr }
%"class.std::__cxx11::basic_string" = type { %"struct.std::__cxx11::basic_string<char>::_Alloc_hider", i64, %union.anon }
%"struct.std::__cxx11::basic_string<char>::_Alloc_hider" = type { ptr }
%union.anon = type { i64, [8 x i8] }
%"class.std::vector" = type { %"struct.std::_Vector_base" }
%"struct.std::_Vector_base" = type { %"struct.std::_Vector_base<osgeo::proj::operation::GridDescription, std::allocator<osgeo::proj::operation::GridDescription>>::_Vector_impl" }
%"struct.std::_Vector_base<osgeo::proj::operation::GridDescription, std::allocator<osgeo::proj::operation::GridDescription>>::_Vector_impl" = type { %"struct.std::_Vector_base<osgeo::proj::operation::GridDescription, std::allocator<osgeo::proj::operation::GridDescription>>::_Vector_impl_data" }
%"struct.std::_Vector_base<osgeo::proj::operation::GridDescription, std::allocator<osgeo::proj::operation::GridDescription>>::_Vector_impl_data" = type { ptr, ptr, ptr }
%"class.std::vector.3" = type { %"struct.std::_Vector_base.4" }
%"struct.std::_Vector_base.4" = type { %"struct.std::_Vector_base<PJCoordOperation, std::allocator<PJCoordOperation>>::_Vector_impl" }
%"struct.std::_Vector_base<PJCoordOperation, std::allocator<PJCoordOperation>>::_Vector_impl" = type { %"struct.std::_Vector_base<PJCoordOperation, std::allocator<PJCoordOperation>>::_Vector_impl_data" }
%"struct.std::_Vector_base<PJCoordOperation, std::allocator<PJCoordOperation>>::_Vector_impl_data" = type { ptr, ptr, ptr }
%"struct.(anonymous namespace)::pj_opaque" = type { double, double, double, double, ptr }

@_ZL10des_sterea = internal constant [54 x i8] c"Oblique Stereographic Alternative\0A\09Azimuthal, Sph&Ell\00", align 16
@.str = private unnamed_addr constant [7 x i8] c"sterea\00", align 1

; Function Attrs: mustprogress uwtable
define hidden noundef ptr @_Z35pj_projection_specific_setup_stereaP8PJconsts(ptr noundef %0) #0 {
  %2 = alloca ptr, align 8
  %3 = alloca ptr, align 8
  %4 = alloca double, align 8
  %5 = alloca ptr, align 8
  store ptr %0, ptr %3, align 8
  %6 = call noalias ptr @calloc(i64 noundef 1, i64 noundef 40) #7
  store ptr %6, ptr %5, align 8
  %7 = load ptr, ptr %5, align 8
  %8 = icmp eq ptr null, %7
  br i1 %8, label %9, label %12

9:                                                ; preds = %1
  %10 = load ptr, ptr %3, align 8
  %11 = call noundef ptr @_Z21pj_default_destructorP8PJconstsi(ptr noundef %10, i32 noundef 4096)
  store ptr %11, ptr %2, align 8
  br label %58

12:                                               ; preds = %1
  %13 = load ptr, ptr %5, align 8
  %14 = load ptr, ptr %3, align 8
  %15 = getelementptr inbounds %struct.PJconsts, ptr %14, i32 0, i32 11
  store ptr %13, ptr %15, align 8
  %16 = load ptr, ptr %3, align 8
  %17 = getelementptr inbounds %struct.PJconsts, ptr %16, i32 0, i32 27
  %18 = load double, ptr %17, align 8
  %19 = load ptr, ptr %3, align 8
  %20 = getelementptr inbounds %struct.PJconsts, ptr %19, i32 0, i32 63
  %21 = load double, ptr %20, align 8
  %22 = load ptr, ptr %5, align 8
  %23 = getelementptr inbounds %"struct.(anonymous namespace)::pj_opaque", ptr %22, i32 0, i32 0
  %24 = call noundef ptr @_Z12pj_gauss_iniddPdS_(double noundef %18, double noundef %21, ptr noundef %23, ptr noundef %4)
  %25 = load ptr, ptr %5, align 8
  %26 = getelementptr inbounds %"struct.(anonymous namespace)::pj_opaque", ptr %25, i32 0, i32 4
  store ptr %24, ptr %26, align 8
  %27 = load ptr, ptr %5, align 8
  %28 = getelementptr inbounds %"struct.(anonymous namespace)::pj_opaque", ptr %27, i32 0, i32 4
  %29 = load ptr, ptr %28, align 8
  %30 = icmp eq ptr null, %29
  br i1 %30, label %31, label %34

31:                                               ; preds = %12
  %32 = load ptr, ptr %3, align 8
  %33 = call noundef ptr @_Z21pj_default_destructorP8PJconstsi(ptr noundef %32, i32 noundef 4096)
  store ptr %33, ptr %2, align 8
  br label %58

34:                                               ; preds = %12
  %35 = load ptr, ptr %5, align 8
  %36 = getelementptr inbounds %"struct.(anonymous namespace)::pj_opaque", ptr %35, i32 0, i32 0
  %37 = load double, ptr %36, align 8
  %38 = call double @sin(double noundef %37) #8
  %39 = load ptr, ptr %5, align 8
  %40 = getelementptr inbounds %"struct.(anonymous namespace)::pj_opaque", ptr %39, i32 0, i32 2
  store double %38, ptr %40, align 8
  %41 = load ptr, ptr %5, align 8
  %42 = getelementptr inbounds %"struct.(anonymous namespace)::pj_opaque", ptr %41, i32 0, i32 0
  %43 = load double, ptr %42, align 8
  %44 = call double @cos(double noundef %43) #8
  %45 = load ptr, ptr %5, align 8
  %46 = getelementptr inbounds %"struct.(anonymous namespace)::pj_opaque", ptr %45, i32 0, i32 1
  store double %44, ptr %46, align 8
  %47 = load double, ptr %4, align 8
  %48 = fmul double 2.000000e+00, %47
  %49 = load ptr, ptr %5, align 8
  %50 = getelementptr inbounds %"struct.(anonymous namespace)::pj_opaque", ptr %49, i32 0, i32 3
  store double %48, ptr %50, align 8
  %51 = load ptr, ptr %3, align 8
  %52 = getelementptr inbounds %struct.PJconsts, ptr %51, i32 0, i32 15
  store ptr @_ZL16sterea_e_inverse5PJ_XYP8PJconsts, ptr %52, align 8
  %53 = load ptr, ptr %3, align 8
  %54 = getelementptr inbounds %struct.PJconsts, ptr %53, i32 0, i32 14
  store ptr @_ZL16sterea_e_forward5PJ_LPP8PJconsts, ptr %54, align 8
  %55 = load ptr, ptr %3, align 8
  %56 = getelementptr inbounds %struct.PJconsts, ptr %55, i32 0, i32 20
  store ptr @_ZL10destructorP8PJconstsi, ptr %56, align 8
  %57 = load ptr, ptr %3, align 8
  store ptr %57, ptr %2, align 8
  br label %58

58:                                               ; preds = %34, %31, %9
  %59 = load ptr, ptr %2, align 8
  ret ptr %59
}

; Function Attrs: mustprogress uwtable
define hidden ptr @pj_sterea(ptr noundef %0) #0 {
  %2 = alloca ptr, align 8
  %3 = alloca ptr, align 8
  store ptr %0, ptr %3, align 8
  %4 = load ptr, ptr %3, align 8
  %5 = icmp ne ptr %4, null
  br i1 %5, label %6, label %9

6:                                                ; preds = %1
  %7 = load ptr, ptr %3, align 8
  %8 = call noundef ptr @_Z35pj_projection_specific_setup_stereaP8PJconsts(ptr noundef %7)
  store ptr %8, ptr %2, align 8
  br label %26

9:                                                ; preds = %1
  %10 = call noundef ptr @_Z6pj_newv()
  store ptr %10, ptr %3, align 8
  %11 = load ptr, ptr %3, align 8
  %12 = icmp eq ptr null, %11
  br i1 %12, label %13, label %14

13:                                               ; preds = %9
  store ptr null, ptr %2, align 8
  br label %26

14:                                               ; preds = %9
  %15 = load ptr, ptr %3, align 8
  %16 = getelementptr inbounds %struct.PJconsts, ptr %15, i32 0, i32 1
  store ptr @.str, ptr %16, align 8
  %17 = load ptr, ptr %3, align 8
  %18 = getelementptr inbounds %struct.PJconsts, ptr %17, i32 0, i32 2
  store ptr @_ZL10des_sterea, ptr %18, align 8
  %19 = load ptr, ptr %3, align 8
  %20 = getelementptr inbounds %struct.PJconsts, ptr %19, i32 0, i32 48
  store i32 1, ptr %20, align 8
  %21 = load ptr, ptr %3, align 8
  %22 = getelementptr inbounds %struct.PJconsts, ptr %21, i32 0, i32 53
  store i32 4, ptr %22, align 4
  %23 = load ptr, ptr %3, align 8
  %24 = getelementptr inbounds %struct.PJconsts, ptr %23, i32 0, i32 54
  store i32 1, ptr %24, align 8
  %25 = load ptr, ptr %3, align 8
  store ptr %25, ptr %2, align 8
  br label %26

26:                                               ; preds = %14, %13, %6
  %27 = load ptr, ptr %2, align 8
  ret ptr %27
}