; Function Attrs: mustprogress uwtable
define hidden noundef ptr @pj_sterea(ptr noundef %0) local_unnamed_addr #0 {
  %2 = alloca double, align 8
  %.not = icmp eq ptr %0, null
  br i1 %.not, label %32, label %3

3:                                                ; preds = %1
  call void @llvm.lifetime.start.p0(i64 8, ptr nonnull %2)
  %4 = tail call noalias dereferenceable_or_null(40) ptr @calloc(i64 noundef 1, i64 noundef 40) #8
  %5 = icmp eq ptr %4, null
  br i1 %5, label %6, label %8

6:                                                ; preds = %3
  %7 = tail call noundef ptr @_Z21pj_default_destructorP8PJconstsi(ptr noundef nonnull %0, i32 noundef 4096)
  br label %_Z35pj_projection_specific_setup_stereaP8PJconsts.exit

8:                                                ; preds = %3
  %9 = getelementptr inbounds i8, ptr %0, i64 88
  store ptr %4, ptr %9, align 8
  %10 = getelementptr inbounds i8, ptr %0, i64 208
  %11 = load double, ptr %10, align 8
  %12 = getelementptr inbounds i8, ptr %0, i64 448
  %13 = load double, ptr %12, align 8
  %14 = call noundef ptr @_Z12pj_gauss_iniddPdS_(double noundef %11, double noundef %13, ptr noundef nonnull %4, ptr noundef nonnull %2)
  %15 = getelementptr inbounds i8, ptr %4, i64 32
  store ptr %14, ptr %15, align 8
  %16 = icmp eq ptr %14, null
  br i1 %16, label %17, label %19

17:                                               ; preds = %8
  %18 = call noundef ptr @_Z21pj_default_destructorP8PJconstsi(ptr noundef nonnull %0, i32 noundef 4096)
  br label %_Z35pj_projection_specific_setup_stereaP8PJconsts.exit

19:                                               ; preds = %8
  %20 = load double, ptr %4, align 8
  %21 = call double @sin(double noundef %20) #9
  %22 = getelementptr inbounds i8, ptr %4, i64 16
  store double %21, ptr %22, align 8
  %23 = load double, ptr %4, align 8
  %24 = call double @cos(double noundef %23) #9
  %25 = getelementptr inbounds i8, ptr %4, i64 8
  store double %24, ptr %25, align 8
  %26 = load double, ptr %2, align 8
  %27 = fmul double %26, 2.000000e+00
  %28 = getelementptr inbounds i8, ptr %4, i64 24
  store double %27, ptr %28, align 8
  %29 = getelementptr inbounds i8, ptr %0, i64 112
  store ptr @_ZL16sterea_e_inverse5PJ_XYP8PJconsts, ptr %29, align 8
  %30 = getelementptr inbounds i8, ptr %0, i64 104
  store ptr @_ZL16sterea_e_forward5PJ_LPP8PJconsts, ptr %30, align 8
  %31 = getelementptr inbounds i8, ptr %0, i64 152
  store ptr @_ZL10destructorP8PJconstsi, ptr %31, align 8
  br label %_Z35pj_projection_specific_setup_stereaP8PJconsts.exit

_Z35pj_projection_specific_setup_stereaP8PJconsts.exit: ; preds = %6, %17, %19
  %.0.i = phi ptr [ %7, %6 ], [ %18, %17 ], [ %0, %19 ]
  call void @llvm.lifetime.end.p0(i64 8, ptr nonnull %2)
  br label %41

32:                                               ; preds = %1
  %33 = tail call noundef ptr @_Z6pj_newv()
  %34 = icmp eq ptr %33, null
  br i1 %34, label %41, label %35

35:                                               ; preds = %32
  %36 = getelementptr inbounds i8, ptr %33, i64 8
  store ptr @.str, ptr %36, align 8
  %37 = getelementptr inbounds i8, ptr %33, i64 16
  store ptr @_ZL10des_sterea, ptr %37, align 8
  %38 = getelementptr inbounds i8, ptr %33, i64 360
  store i32 1, ptr %38, align 8
  %39 = getelementptr inbounds i8, ptr %33, i64 380
  store i32 4, ptr %39, align 4
  %40 = getelementptr inbounds i8, ptr %33, i64 384
  store i32 1, ptr %40, align 8
  br label %41

41:                                               ; preds = %32, %35, %_Z35pj_projection_specific_setup_stereaP8PJconsts.exit
  %.0 = phi ptr [ %.0.i, %_Z35pj_projection_specific_setup_stereaP8PJconsts.exit ], [ %33, %35 ], [ null, %32 ]
  ret ptr %.0
}